	.file	"abc.cpp"
	.text
	.local	_ZStL8__ioinit
	.comm	_ZStL8__ioinit,1,1
	.section	.rodata
.LC0:
	.string	"c0 c0f1"
	.section	.text._ZN2C04c0f1Ev,"axG",@progbits,_ZN2C04c0f1Ev,comdat
	.align 2
	.weak	_ZN2C04c0f1Ev
	.type	_ZN2C04c0f1Ev, @function
_ZN2C04c0f1Ev:
.LFB1731:
	.cfi_startproc
	endbr64
	pushq	%rbp
	.cfi_def_cfa_offset 16
	.cfi_offset 6, -16
	movq	%rsp, %rbp
	.cfi_def_cfa_register 6
	subq	$16, %rsp
	movq	%rdi, -8(%rbp)
	leaq	.LC0(%rip), %rax
	movq	%rax, %rsi
	leaq	_ZSt4cout(%rip), %rax
	movq	%rax, %rdi
	call	_ZStlsISt11char_traitsIcEERSt13basic_ostreamIcT_ES5_PKc@PLT
	movq	_ZSt4endlIcSt11char_traitsIcEERSt13basic_ostreamIT_T0_ES6_@GOTPCREL(%rip), %rdx
	movq	%rdx, %rsi
	movq	%rax, %rdi
	call	_ZNSolsEPFRSoS_E@PLT
	nop
	leave
	.cfi_def_cfa 7, 8
	ret
	.cfi_endproc
.LFE1731:
	.size	_ZN2C04c0f1Ev, .-_ZN2C04c0f1Ev
	.section	.rodata
.LC1:
	.string	"c0 c0f2"
	.section	.text._ZN2C04c0f2Ev,"axG",@progbits,_ZN2C04c0f2Ev,comdat
	.align 2
	.weak	_ZN2C04c0f2Ev
	.type	_ZN2C04c0f2Ev, @function
_ZN2C04c0f2Ev:
.LFB1732:
	.cfi_startproc
	endbr64
	pushq	%rbp
	.cfi_def_cfa_offset 16
	.cfi_offset 6, -16
	movq	%rsp, %rbp
	.cfi_def_cfa_register 6
	subq	$16, %rsp
	movq	%rdi, -8(%rbp)
	leaq	.LC1(%rip), %rax
	movq	%rax, %rsi
	leaq	_ZSt4cout(%rip), %rax
	movq	%rax, %rdi
	call	_ZStlsISt11char_traitsIcEERSt13basic_ostreamIcT_ES5_PKc@PLT
	movq	_ZSt4endlIcSt11char_traitsIcEERSt13basic_ostreamIT_T0_ES6_@GOTPCREL(%rip), %rdx
	movq	%rdx, %rsi
	movq	%rax, %rdi
	call	_ZNSolsEPFRSoS_E@PLT
	nop
	leave
	.cfi_def_cfa 7, 8
	ret
	.cfi_endproc
.LFE1732:
	.size	_ZN2C04c0f2Ev, .-_ZN2C04c0f2Ev
	.text
	.globl	_Z5test1v
	.type	_Z5test1v, @function
_Z5test1v:
.LFB1733:
	.cfi_startproc
	endbr64
	pushq	%rbp
	.cfi_def_cfa_offset 16
	.cfi_offset 6, -16
	movq	%rsp, %rbp
	.cfi_def_cfa_register 6
	subq	$32, %rsp
	movq	%fs:40, %rax
	movq	%rax, -8(%rbp)
	xorl	%eax, %eax
	leaq	16+_ZTV2C0(%rip), %rax
	movq	%rax, -32(%rbp)
	movl	$10, -24(%rbp)
	leaq	-32(%rbp), %rax
	movq	%rax, %rdi
	call	_ZN2C04c0f1Ev
	nop
	movq	-8(%rbp), %rax
	subq	%fs:40, %rax
	je	.L4
	call	__stack_chk_fail@PLT
.L4:
	leave
	.cfi_def_cfa 7, 8
	ret
	.cfi_endproc
.LFE1733:
	.size	_Z5test1v, .-_Z5test1v
	.globl	main
	.type	main, @function
main:
.LFB1737:
	.cfi_startproc
	endbr64
	pushq	%rbp
	.cfi_def_cfa_offset 16
	.cfi_offset 6, -16
	movq	%rsp, %rbp
	.cfi_def_cfa_register 6
	call	_Z5test1v
	movl	$0, %eax
	popq	%rbp
	.cfi_def_cfa 7, 8
	ret
	.cfi_endproc
.LFE1737:
	.size	main, .-main
	.weak	_ZTV2C0
	.section	.data.rel.ro.local._ZTV2C0,"awG",@progbits,_ZTV2C0,comdat
	.align 8
	.type	_ZTV2C0, @object
	.size	_ZTV2C0, 24
_ZTV2C0:
	.quad	0
	.quad	_ZTI2C0
	.quad	_ZN2C04c0f2Ev
	.weak	_ZTI2C0
	.section	.data.rel.ro._ZTI2C0,"awG",@progbits,_ZTI2C0,comdat
	.align 8
	.type	_ZTI2C0, @object
	.size	_ZTI2C0, 16
_ZTI2C0:
	.quad	_ZTVN10__cxxabiv117__class_type_infoE+16
	.quad	_ZTS2C0
	.weak	_ZTS2C0
	.section	.rodata._ZTS2C0,"aG",@progbits,_ZTS2C0,comdat
	.type	_ZTS2C0, @object
	.size	_ZTS2C0, 4
_ZTS2C0:
	.string	"2C0"
	.text
	.type	_Z41__static_initialization_and_destruction_0ii, @function
_Z41__static_initialization_and_destruction_0ii:
.LFB2240:
	.cfi_startproc
	endbr64
	pushq	%rbp
	.cfi_def_cfa_offset 16
	.cfi_offset 6, -16
	movq	%rsp, %rbp
	.cfi_def_cfa_register 6
	subq	$16, %rsp
	movl	%edi, -4(%rbp)
	movl	%esi, -8(%rbp)
	cmpl	$1, -4(%rbp)
	jne	.L9
	cmpl	$65535, -8(%rbp)
	jne	.L9
	leaq	_ZStL8__ioinit(%rip), %rax
	movq	%rax, %rdi
	call	_ZNSt8ios_base4InitC1Ev@PLT
	leaq	__dso_handle(%rip), %rax
	movq	%rax, %rdx
	leaq	_ZStL8__ioinit(%rip), %rax
	movq	%rax, %rsi
	movq	_ZNSt8ios_base4InitD1Ev@GOTPCREL(%rip), %rax
	movq	%rax, %rdi
	call	__cxa_atexit@PLT
.L9:
	nop
	leave
	.cfi_def_cfa 7, 8
	ret
	.cfi_endproc
.LFE2240:
	.size	_Z41__static_initialization_and_destruction_0ii, .-_Z41__static_initialization_and_destruction_0ii
	.type	_GLOBAL__sub_I__Z5test1v, @function
_GLOBAL__sub_I__Z5test1v:
.LFB2241:
	.cfi_startproc
	endbr64
	pushq	%rbp
	.cfi_def_cfa_offset 16
	.cfi_offset 6, -16
	movq	%rsp, %rbp
	.cfi_def_cfa_register 6
	movl	$65535, %esi
	movl	$1, %edi
	call	_Z41__static_initialization_and_destruction_0ii
	popq	%rbp
	.cfi_def_cfa 7, 8
	ret
	.cfi_endproc
.LFE2241:
	.size	_GLOBAL__sub_I__Z5test1v, .-_GLOBAL__sub_I__Z5test1v
	.section	.init_array,"aw"
	.align 8
	.quad	_GLOBAL__sub_I__Z5test1v
	.hidden	__dso_handle
	.ident	"GCC: (Ubuntu 11.4.0-1ubuntu1~22.04) 11.4.0"
	.section	.note.GNU-stack,"",@progbits
	.section	.note.gnu.property,"a"
	.align 8
	.long	1f - 0f
	.long	4f - 1f
	.long	5
0:
	.string	"GNU"
1:
	.align 8
	.long	0xc0000002
	.long	3f - 2f
2:
	.long	0x3
3:
	.align 8
4:
